; Function Attrs: mustprogress nofree norecurse nosync nounwind willreturn memory(readwrite, inaccessiblemem: none) uwtable
define void @aag_flush_buffer(ptr noundef %0) local_unnamed_addr #10 {
  %.not = icmp eq ptr %0, null
  br i1 %.not, label %.thread, label %2

2:                                                ; preds = %1
  %3 = getelementptr inbounds nuw i8, ptr %0, i64 28
  store i32 0, ptr %3, align 4
  %4 = getelementptr inbounds nuw i8, ptr %0, i64 8
  %5 = load ptr, ptr %4, align 8
  store i8 0, ptr %5, align 1
  %6 = load ptr, ptr %4, align 8
  %7 = getelementptr inbounds nuw i8, ptr %6, i64 1
  store i8 0, ptr %7, align 1
  %8 = load ptr, ptr %4, align 8
  %9 = getelementptr inbounds nuw i8, ptr %0, i64 16
  store ptr %8, ptr %9, align 8
  %10 = getelementptr inbounds nuw i8, ptr %0, i64 40
  store i32 1, ptr %10, align 8
  %11 = getelementptr inbounds nuw i8, ptr %0, i64 56
  store i32 0, ptr %11, align 8
  %12 = load ptr, ptr @yy_buffer_stack, align 8
  %.not10 = icmp eq ptr %12, null
  br i1 %.not10, label %.thread, label %13

13:                                               ; preds = %2
  %14 = load i64, ptr @yy_buffer_stack_top, align 8
  %15 = getelementptr inbounds ptr, ptr %12, i64 %14
  %16 = load ptr, ptr %15, align 8
  %17 = icmp eq ptr %0, %16
  br i1 %17, label %18, label %.thread

18:                                               ; preds = %13
  %19 = getelementptr inbounds nuw i8, ptr %16, i64 28
  %20 = load i32, ptr %19, align 4
  store i32 %20, ptr @yy_n_chars, align 4
  %21 = getelementptr inbounds nuw i8, ptr %16, i64 16
  %22 = load ptr, ptr %21, align 8
  store ptr %22, ptr @yy_c_buf_p, align 8
  store ptr %22, ptr @aagtext, align 8
  %23 = load ptr, ptr %15, align 8
  %24 = load ptr, ptr %23, align 8
  store ptr %24, ptr @aagin, align 8
  %25 = load i8, ptr %22, align 1
  store i8 %25, ptr @yy_hold_char, align 1
  br label %.thread

.thread:                                          ; preds = %2, %1, %18, %13
  ret void
}